target datalayout = "e-m:e-p270:32:32-p271:32:32-p272:64:64-i64:64-i128:128-f80:128-n8:16:32:64-S128"
target triple = "x86_64-pc-linux-gnu"

%struct.Curl_cftype = type { ptr, i32, i32, ptr, ptr, ptr, ptr, ptr, ptr, ptr, ptr, ptr, ptr, ptr, ptr, ptr }
%struct.Curl_cfilter = type { ptr, ptr, ptr, ptr, i32, i8 }
%struct.cf_call_data = type { ptr }
%struct.cf_h2_proxy_ctx = type { ptr, %struct.cf_call_data, %struct.bufq, %struct.bufq, %struct.tunnel_stream, i32, i32, i8 }
%struct.bufq = type { ptr, ptr, ptr, ptr, i64, i64, i64, i32 }
%struct.tunnel_stream = type { ptr, %struct.bufq, %struct.bufq, ptr, i32, i32, i32, i8 }
%struct.Curl_easy = type { i32, i64, i64, ptr, %struct.Curl_llist_node, %struct.Curl_llist_node, i32, i32, %struct.Curl_message, %struct.easy_pollset, %struct.Names, ptr, ptr, ptr, %struct.SingleRequest, %struct.UserDefined, ptr, ptr, %struct.Progress, %struct.UrlState, ptr, %struct.PureInfo, %struct.curl_tlssessioninfo }
%struct.Curl_llist_node = type { ptr, ptr, ptr, ptr }
%struct.Curl_message = type { %struct.Curl_llist_node, %struct.CURLMsg }
%struct.CURLMsg = type { i32, ptr, %union.anon }
%union.anon = type { ptr }
%struct.easy_pollset = type { [5 x i32], i32, [5 x i8] }
%struct.Names = type { ptr, i32 }
%struct.SingleRequest = type <{ i64, i64, i64, i64, %struct.curltime, i32, i32, i32, i32, i64, i32, i32, i32, i32, ptr, ptr, %struct.bufq, i64, i64, ptr, ptr, %union.anon.0, ptr, i8, i32, [3 x i8] }>
%struct.curltime = type { i64, i32 }
%union.anon.0 = type { ptr }
%struct.UserDefined = type <{ ptr, ptr, ptr, ptr, ptr, ptr, i16, [6 x i8], i64, i64, i64, ptr, ptr, i64, i16, i16, [4 x i8], ptr, ptr, ptr, ptr, ptr, ptr, ptr, ptr, ptr, ptr, ptr, ptr, ptr, ptr, ptr, ptr, ptr, ptr, ptr, ptr, ptr, ptr, ptr, i32, i32, i32, i32, i32, [4 x i8], i64, i64, i64, i64, i64, i64, i64, i64, ptr, ptr, %struct.curl_mimepart, ptr, ptr, i64, i8, i8, i8, [5 x i8], %struct.ssl_config_data, %struct.ssl_config_data, ptr, i16, i8, i8, [4 x i8], %struct.ssl_general_config, i32, i32, i32, [4 x i8], ptr, ptr, i8, [7 x i8], i64, i8, i8, i8, i8, i32, ptr, ptr, ptr, i8, i8, [2 x i8], i32, [63 x ptr], [8 x ptr], i32, i32, i32, [4 x i8], ptr, ptr, ptr, ptr, ptr, i8, [3 x i8], i32, i32, i32, i64, %struct.Curl_data_priority, ptr, ptr, i64, ptr, i64, ptr, ptr, ptr, i8, [3 x i8], i32, i8, i8, i64, [6 x i8] }>
%struct.curl_mimepart = type { ptr, ptr, i32, i32, ptr, ptr, ptr, ptr, ptr, ptr, ptr, ptr, ptr, ptr, ptr, i64, %struct.mime_state, ptr, %struct.mime_encoder_state, i64 }
%struct.mime_state = type { i32, ptr, i64 }
%struct.mime_encoder_state = type { i64, i64, i64, [256 x i8] }
%struct.ssl_config_data = type { %struct.ssl_primary_config, i64, ptr, ptr, ptr, ptr, ptr, ptr, ptr, i16 }
%struct.ssl_primary_config = type { ptr, ptr, ptr, ptr, ptr, ptr, ptr, ptr, ptr, ptr, ptr, ptr, i8, i32, i8, i8 }
%struct.ssl_general_config = type { i64, i32 }
%struct.Curl_data_priority = type { ptr, ptr, i32, i8 }
%struct.Progress = type { i64, %struct.pgrs_dir, %struct.pgrs_dir, i64, i64, i32, i32, i64, i64, i64, i64, i64, i64, i64, i64, i64, %struct.curltime, %struct.curltime, %struct.curltime, %struct.curltime, [6 x i64], [6 x %struct.curltime], i32, i8 }
%struct.pgrs_dir = type { i64, i64, i64, %struct.pgrs_measure }
%struct.pgrs_measure = type { %struct.curltime, i64 }
%struct.UrlState = type { %struct.curltime, i64, i64, %struct.dynbuf, ptr, i64, ptr, i32, i32, i32, ptr, i64, i32, i64, i32, ptr, %struct.digestdata, %struct.digestdata, %struct.auth, %struct.auth, %struct.Curl_async, ptr, %struct.curltime, %struct.Curl_tree, %struct.Curl_llist, [15 x %struct.time_node], ptr, ptr, i64, i64, %struct.Curl_data_priority, ptr, ptr, ptr, %struct.urlpieces, ptr, ptr, ptr, ptr, ptr, i64, %struct.dynbuf, %struct.Curl_llist, [2 x %struct.curl_header], ptr, i32, ptr, ptr, %struct.store_netrc, %struct.dynamically_allocated_data, i8, i8, i8, i8, i32 }
%struct.digestdata = type { ptr, ptr, ptr, ptr, ptr, ptr, i32, i8, i8 }
%struct.auth = type { i64, i64, i64, i8 }
%struct.Curl_async = type { ptr, ptr, ptr, ptr, i32, i32, i8 }
%struct.Curl_tree = type { ptr, ptr, ptr, ptr, %struct.curltime, ptr }
%struct.time_node = type { %struct.Curl_llist_node, %struct.curltime, i32 }
%struct.urlpieces = type { ptr, ptr, ptr, ptr, ptr, ptr, ptr, ptr }
%struct.dynbuf = type { ptr, i64, i64, i64 }
%struct.Curl_llist = type { ptr, ptr, ptr, i64 }
%struct.curl_header = type { ptr, ptr, i64, i64, i32, ptr }
%struct.store_netrc = type { %struct.dynbuf, ptr, i8 }
%struct.dynamically_allocated_data = type { ptr, ptr, ptr, ptr, ptr, ptr, ptr, ptr, ptr, ptr, ptr, ptr, ptr }
%struct.PureInfo = type { i32, i32, i32, i64, i64, i64, i64, i64, ptr, ptr, i64, i32, %struct.ip_quadruple, i32, ptr, i32, %struct.curl_certinfo, i32, i8 }
%struct.ip_quadruple = type { [46 x i8], [46 x i8], i32, i32 }
%struct.curl_certinfo = type { i32, ptr }
%struct.curl_tlssessioninfo = type { i32, ptr }
%struct.curl_trc_feat = type { ptr, i32 }

@.str.74 = private unnamed_addr constant [39 x i8] c"[0] conn alive -> %d, input_pending=%d\00", align 1

; Function Attrs: nounwind uwtable
define internal i32 @proxy_h2_should_close_session(ptr noundef %0) #0 {
  %2 = alloca ptr, align 8
  store ptr %0, ptr %2, align 8, !tbaa !16
  %3 = load ptr, ptr %2, align 8, !tbaa !16
  %4 = getelementptr inbounds nuw %struct.cf_h2_proxy_ctx, ptr %3, i32 0, i32 0
  %5 = load ptr, ptr %4, align 8, !tbaa !40
  %6 = call i32 @nghttp2_session_want_read(ptr noundef %5)
  %7 = icmp ne i32 %6, 0
  br i1 %7, label %15, label %8

8:                                                ; preds = %1
  %9 = load ptr, ptr %2, align 8, !tbaa !16
  %10 = getelementptr inbounds nuw %struct.cf_h2_proxy_ctx, ptr %9, i32 0, i32 0
  %11 = load ptr, ptr %10, align 8, !tbaa !40
  %12 = call i32 @nghttp2_session_want_write(ptr noundef %11)
  %13 = icmp ne i32 %12, 0
  %14 = xor i1 %13, true
  br label %15

15:                                               ; preds = %8, %1
  %16 = phi i1 [ false, %1 ], [ %14, %8 ]
  %17 = zext i1 %16 to i32
  ret i32 %17
}

; Function Attrs: nounwind uwtable
define internal zeroext i1 @proxy_h2_connisalive(ptr noundef %0, ptr noundef %1, ptr noundef %2) #0 {
  %4 = alloca i1, align 1
  %5 = alloca ptr, align 8
  %6 = alloca ptr, align 8
  %7 = alloca ptr, align 8
  %8 = alloca ptr, align 8
  %9 = alloca i8, align 1
  %10 = alloca i32, align 4
  %11 = alloca i32, align 4
  %12 = alloca i64, align 8
  store ptr %0, ptr %5, align 8, !tbaa !4
  store ptr %1, ptr %6, align 8, !tbaa !9
  store ptr %2, ptr %7, align 8, !tbaa !20
  call void @llvm.lifetime.start.p0(i64 8, ptr %8) #6
  %13 = load ptr, ptr %5, align 8, !tbaa !4
  %14 = getelementptr inbounds nuw %struct.Curl_cfilter, ptr %13, i32 0, i32 2
  %15 = load ptr, ptr %14, align 8, !tbaa !11
  store ptr %15, ptr %8, align 8, !tbaa !16
  call void @llvm.lifetime.start.p0(i64 1, ptr %9) #6
  store i8 1, ptr %9, align 1, !tbaa !18
  %16 = load ptr, ptr %7, align 8, !tbaa !20
  store i8 0, ptr %16, align 1, !tbaa !18
  %17 = load ptr, ptr %5, align 8, !tbaa !4
  %18 = getelementptr inbounds nuw %struct.Curl_cfilter, ptr %17, i32 0, i32 1
  %19 = load ptr, ptr %18, align 8, !tbaa !25
  %20 = icmp ne ptr %19, null
  br i1 %20, label %21, label %35

21:                                               ; preds = %3
  %22 = load ptr, ptr %5, align 8, !tbaa !4
  %23 = getelementptr inbounds nuw %struct.Curl_cfilter, ptr %22, i32 0, i32 1
  %24 = load ptr, ptr %23, align 8, !tbaa !25
  %25 = getelementptr inbounds nuw %struct.Curl_cfilter, ptr %24, i32 0, i32 0
  %26 = load ptr, ptr %25, align 8, !tbaa !43
  %27 = getelementptr inbounds nuw %struct.Curl_cftype, ptr %26, i32 0, i32 13
  %28 = load ptr, ptr %27, align 8, !tbaa !163
  %29 = load ptr, ptr %5, align 8, !tbaa !4
  %30 = getelementptr inbounds nuw %struct.Curl_cfilter, ptr %29, i32 0, i32 1
  %31 = load ptr, ptr %30, align 8, !tbaa !25
  %32 = load ptr, ptr %6, align 8, !tbaa !9
  %33 = load ptr, ptr %7, align 8, !tbaa !20
  %34 = call zeroext i1 %28(ptr noundef %31, ptr noundef %32, ptr noundef %33)
  br i1 %34, label %36, label %35

35:                                               ; preds = %21, %3
  store i1 false, ptr %4, align 1
  store i32 1, ptr %10, align 4
  br label %70

36:                                               ; preds = %21
  %37 = load ptr, ptr %7, align 8, !tbaa !20
  %38 = load i8, ptr %37, align 1, !tbaa !18, !range !26, !noundef !27
  %39 = trunc i8 %38 to i1
  br i1 %39, label %40, label %67

40:                                               ; preds = %36
  call void @llvm.lifetime.start.p0(i64 4, ptr %11) #6
  call void @llvm.lifetime.start.p0(i64 8, ptr %12) #6
  store i64 -1, ptr %12, align 8, !tbaa !41
  %41 = load ptr, ptr %7, align 8, !tbaa !20
  store i8 0, ptr %41, align 1, !tbaa !18
  %42 = load ptr, ptr %8, align 8, !tbaa !16
  %43 = getelementptr inbounds nuw %struct.cf_h2_proxy_ctx, ptr %42, i32 0, i32 2
  %44 = load ptr, ptr %5, align 8, !tbaa !4
  %45 = call i64 @Curl_bufq_slurp(ptr noundef %43, ptr noundef @proxy_nw_in_reader, ptr noundef %44, ptr noundef %11)
  store i64 %45, ptr %12, align 8, !tbaa !41
  %46 = load i64, ptr %12, align 8, !tbaa !41
  %47 = icmp ne i64 %46, -1
  br i1 %47, label %48, label %61

48:                                               ; preds = %40
  %49 = load ptr, ptr %5, align 8, !tbaa !4
  %50 = load ptr, ptr %6, align 8, !tbaa !9
  %51 = call i32 @proxy_h2_process_pending_input(ptr noundef %49, ptr noundef %50, ptr noundef %11)
  %52 = icmp slt i32 %51, 0
  br i1 %52, label %53, label %54

53:                                               ; preds = %48
  store i8 0, ptr %9, align 1, !tbaa !18
  br label %60

54:                                               ; preds = %48
  %55 = load ptr, ptr %8, align 8, !tbaa !16
  %56 = call i32 @proxy_h2_should_close_session(ptr noundef %55)
  %57 = icmp ne i32 %56, 0
  %58 = xor i1 %57, true
  %59 = zext i1 %58 to i8
  store i8 %59, ptr %9, align 1, !tbaa !18
  br label %60

60:                                               ; preds = %54, %53
  br label %66

61:                                               ; preds = %40
  %62 = load i32, ptr %11, align 4, !tbaa !22
  %63 = icmp ne i32 %62, 81
  br i1 %63, label %64, label %65

64:                                               ; preds = %61
  store i8 0, ptr %9, align 1, !tbaa !18
  br label %65

65:                                               ; preds = %64, %61
  br label %66

66:                                               ; preds = %65, %60
  call void @llvm.lifetime.end.p0(i64 8, ptr %12) #6
  call void @llvm.lifetime.end.p0(i64 4, ptr %11) #6
  br label %67

67:                                               ; preds = %66, %36
  %68 = load i8, ptr %9, align 1, !tbaa !18, !range !26, !noundef !27
  %69 = trunc i8 %68 to i1
  store i1 %69, ptr %4, align 1
  store i32 1, ptr %10, align 4
  br label %70

70:                                               ; preds = %67, %35
  call void @llvm.lifetime.end.p0(i64 1, ptr %9) #6
  call void @llvm.lifetime.end.p0(i64 8, ptr %8) #6
  %71 = load i1, ptr %4, align 1
  ret i1 %71
}

; Function Attrs: nounwind uwtable
define internal zeroext i1 @cf_h2_proxy_is_alive(ptr noundef %0, ptr noundef %1, ptr noundef %2) #0 {
  %4 = alloca ptr, align 8
  %5 = alloca ptr, align 8
  %6 = alloca ptr, align 8
  %7 = alloca ptr, align 8
  %8 = alloca i32, align 4
  %9 = alloca %struct.cf_call_data, align 8
  store ptr %0, ptr %4, align 8, !tbaa !4
  store ptr %1, ptr %5, align 8, !tbaa !9
  store ptr %2, ptr %6, align 8, !tbaa !20
  call void @llvm.lifetime.start.p0(i64 8, ptr %7) #6
  %10 = load ptr, ptr %4, align 8, !tbaa !4
  %11 = getelementptr inbounds nuw %struct.Curl_cfilter, ptr %10, i32 0, i32 2
  %12 = load ptr, ptr %11, align 8, !tbaa !11
  store ptr %12, ptr %7, align 8, !tbaa !16
  call void @llvm.lifetime.start.p0(i64 4, ptr %8) #6
  call void @llvm.lifetime.start.p0(i64 8, ptr %9) #6
  br label %13

13:                                               ; preds = %3
  %14 = load ptr, ptr %4, align 8, !tbaa !4
  %15 = getelementptr inbounds nuw %struct.Curl_cfilter, ptr %14, i32 0, i32 2
  %16 = load ptr, ptr %15, align 8, !tbaa !11
  %17 = getelementptr inbounds nuw %struct.cf_h2_proxy_ctx, ptr %16, i32 0, i32 1
  call void @llvm.memcpy.p0.p0.i64(ptr align 8 %9, ptr align 8 %17, i64 8, i1 false), !tbaa.struct !28
  %18 = load ptr, ptr %5, align 8, !tbaa !9
  %19 = load ptr, ptr %4, align 8, !tbaa !4
  %20 = getelementptr inbounds nuw %struct.Curl_cfilter, ptr %19, i32 0, i32 2
  %21 = load ptr, ptr %20, align 8, !tbaa !11
  %22 = getelementptr inbounds nuw %struct.cf_h2_proxy_ctx, ptr %21, i32 0, i32 1
  %23 = getelementptr inbounds nuw %struct.cf_call_data, ptr %22, i32 0, i32 0
  store ptr %18, ptr %23, align 8, !tbaa !29
  br label %24

24:                                               ; preds = %13
  br label %25

25:                                               ; preds = %24
  %26 = load ptr, ptr %7, align 8, !tbaa !16
  %27 = icmp ne ptr %26, null
  br i1 %27, label %28, label %38

28:                                               ; preds = %25
  %29 = load ptr, ptr %7, align 8, !tbaa !16
  %30 = getelementptr inbounds nuw %struct.cf_h2_proxy_ctx, ptr %29, i32 0, i32 0
  %31 = load ptr, ptr %30, align 8, !tbaa !40
  %32 = icmp ne ptr %31, null
  br i1 %32, label %33, label %38

33:                                               ; preds = %28
  %34 = load ptr, ptr %4, align 8, !tbaa !4
  %35 = load ptr, ptr %5, align 8, !tbaa !9
  %36 = load ptr, ptr %6, align 8, !tbaa !20
  %37 = call zeroext i1 @proxy_h2_connisalive(ptr noundef %34, ptr noundef %35, ptr noundef %36)
  br label %38

38:                                               ; preds = %33, %28, %25
  %39 = phi i1 [ false, %28 ], [ false, %25 ], [ %37, %33 ]
  %40 = zext i1 %39 to i32
  store i32 %40, ptr %8, align 4, !tbaa !22
  br label %41

41:                                               ; preds = %38
  %42 = load ptr, ptr %5, align 8, !tbaa !9
  %43 = icmp ne ptr %42, null
  br i1 %43, label %44, label %85

44:                                               ; preds = %41
  %45 = load ptr, ptr %5, align 8, !tbaa !9
  %46 = getelementptr inbounds nuw %struct.Curl_easy, ptr %45, i32 0, i32 15
  %47 = getelementptr inbounds nuw %struct.UserDefined, ptr %46, i32 0, i32 124
  %48 = load i64, ptr %47, align 2
  %49 = lshr i64 %48, 27
  %50 = and i64 %49, 1
  %51 = trunc i64 %50 to i32
  %52 = icmp ne i32 %51, 0
  br i1 %52, label %53, label %85

53:                                               ; preds = %44
  %54 = load ptr, ptr %5, align 8, !tbaa !9
  %55 = getelementptr inbounds nuw %struct.Curl_easy, ptr %54, i32 0, i32 19
  %56 = getelementptr inbounds nuw %struct.UrlState, ptr %55, i32 0, i32 47
  %57 = load ptr, ptr %56, align 8, !tbaa !49
  %58 = icmp ne ptr %57, null
  br i1 %58, label %59, label %67

59:                                               ; preds = %53
  %60 = load ptr, ptr %5, align 8, !tbaa !9
  %61 = getelementptr inbounds nuw %struct.Curl_easy, ptr %60, i32 0, i32 19
  %62 = getelementptr inbounds nuw %struct.UrlState, ptr %61, i32 0, i32 47
  %63 = load ptr, ptr %62, align 8, !tbaa !49
  %64 = getelementptr inbounds nuw %struct.curl_trc_feat, ptr %63, i32 0, i32 1
  %65 = load i32, ptr %64, align 8, !tbaa !111
  %66 = icmp sge i32 %65, 1
  br i1 %66, label %67, label %85

67:                                               ; preds = %59, %53
  %68 = load ptr, ptr %4, align 8, !tbaa !4
  %69 = icmp ne ptr %68, null
  br i1 %69, label %70, label %85

70:                                               ; preds = %67
  %71 = load ptr, ptr %4, align 8, !tbaa !4
  %72 = getelementptr inbounds nuw %struct.Curl_cfilter, ptr %71, i32 0, i32 0
  %73 = load ptr, ptr %72, align 8, !tbaa !43
  %74 = getelementptr inbounds nuw %struct.Curl_cftype, ptr %73, i32 0, i32 2
  %75 = load i32, ptr %74, align 4, !tbaa !113
  %76 = icmp sge i32 %75, 1
  br i1 %76, label %77, label %85

77:                                               ; preds = %70
  %78 = load ptr, ptr %5, align 8, !tbaa !9
  %79 = load ptr, ptr %4, align 8, !tbaa !4
  %80 = load i32, ptr %8, align 4, !tbaa !22
  %81 = load ptr, ptr %6, align 8, !tbaa !20
  %82 = load i8, ptr %81, align 1, !tbaa !18, !range !26, !noundef !27
  %83 = trunc i8 %82 to i1
  %84 = zext i1 %83 to i32
  call void (ptr, ptr, ptr, ...) @Curl_trc_cf_infof(ptr noundef %78, ptr noundef %79, ptr noundef @.str.74, i32 noundef %80, i32 noundef %84)
  br label %85

85:                                               ; preds = %77, %70, %67, %59, %44, %41
  br label %86

86:                                               ; preds = %85
  br label %87

87:                                               ; preds = %86
  br label %88

88:                                               ; preds = %87
  %89 = load ptr, ptr %4, align 8, !tbaa !4
  %90 = getelementptr inbounds nuw %struct.Curl_cfilter, ptr %89, i32 0, i32 2
  %91 = load ptr, ptr %90, align 8, !tbaa !11
  %92 = getelementptr inbounds nuw %struct.cf_h2_proxy_ctx, ptr %91, i32 0, i32 1
  call void @llvm.memcpy.p0.p0.i64(ptr align 8 %92, ptr align 8 %9, i64 8, i1 false), !tbaa.struct !28
  br label %93

93:                                               ; preds = %88
  br label %94

94:                                               ; preds = %93
  %95 = load i32, ptr %8, align 4, !tbaa !22
  %96 = icmp ne i32 %95, 0
  call void @llvm.lifetime.end.p0(i64 8, ptr %9) #6
  call void @llvm.lifetime.end.p0(i64 4, ptr %8) #6
  call void @llvm.lifetime.end.p0(i64 8, ptr %7) #6
  ret i1 %96
}