; Function Attrs: nounwind uwtable
define internal zeroext i1 @cf_h2_proxy_is_alive(ptr noundef %0, ptr noundef %1, ptr noundef %2) #0 {
  %4 = alloca i32, align 4
  %5 = getelementptr inbounds nuw i8, ptr %0, i64 16
  %6 = load ptr, ptr %5, align 8, !tbaa !4
  %7 = getelementptr inbounds nuw i8, ptr %6, i64 8
  %.sroa.0.0.copyload = load ptr, ptr %7, align 8, !tbaa !13
  store ptr %1, ptr %7, align 8, !tbaa !34
  %8 = load ptr, ptr %6, align 8, !tbaa !15
  %.not24 = icmp eq ptr %8, null
  br i1 %.not24, label %proxy_h2_connisalive.exit, label %9

9:                                                ; preds = %3
  store i8 0, ptr %2, align 1, !tbaa !29
  %10 = getelementptr inbounds nuw i8, ptr %0, i64 8
  %11 = load ptr, ptr %10, align 8, !tbaa !31
  %.not.i = icmp eq ptr %11, null
  br i1 %.not.i, label %proxy_h2_connisalive.exit, label %12

12:                                               ; preds = %9
  %13 = load ptr, ptr %11, align 8, !tbaa !111
  %14 = getelementptr inbounds nuw i8, ptr %13, i64 96
  %15 = load ptr, ptr %14, align 8, !tbaa !140
  %16 = tail call zeroext i1 %15(ptr noundef nonnull %11, ptr noundef %1, ptr noundef nonnull %2) #7
  br i1 %16, label %17, label %proxy_h2_connisalive.exit

17:                                               ; preds = %12
  %18 = load i8, ptr %2, align 1, !tbaa !29, !range !32, !noundef !33
  %19 = trunc nuw i8 %18 to i1
  br i1 %19, label %20, label %proxy_h2_connisalive.exit

20:                                               ; preds = %17
  call void @llvm.lifetime.start.p0(i64 4, ptr nonnull %4) #7
  store i8 0, ptr %2, align 1, !tbaa !29
  %21 = getelementptr inbounds nuw i8, ptr %6, i64 16
  %22 = call i64 @Curl_bufq_slurp(ptr noundef nonnull %21, ptr noundef nonnull @proxy_nw_in_reader, ptr noundef nonnull %0, ptr noundef nonnull %4) #7
  %.not18.i = icmp eq i64 %22, -1
  br i1 %.not18.i, label %32, label %23

23:                                               ; preds = %20
  %24 = call fastcc i32 @proxy_h2_process_pending_input(ptr noundef nonnull %0, ptr noundef %1, ptr noundef %4)
  %25 = icmp slt i32 %24, 0
  br i1 %25, label %proxy_h2_should_close_session.exit.i, label %26

26:                                               ; preds = %23
  %27 = load ptr, ptr %6, align 8, !tbaa !15
  %28 = call i32 @nghttp2_session_want_read(ptr noundef %27) #7
  %.not.i.i = icmp eq i32 %28, 0
  br i1 %.not.i.i, label %29, label %proxy_h2_should_close_session.exit.i

29:                                               ; preds = %26
  %30 = load ptr, ptr %6, align 8, !tbaa !15
  %31 = call i32 @nghttp2_session_want_write(ptr noundef %30) #7
  %.not2.i.i = icmp ne i32 %31, 0
  br label %proxy_h2_should_close_session.exit.i

32:                                               ; preds = %20
  %33 = load i32, ptr %4, align 4, !tbaa !40
  %.not19.i = icmp eq i32 %33, 81
  br label %proxy_h2_should_close_session.exit.i

proxy_h2_should_close_session.exit.i:             ; preds = %32, %29, %26, %23
  %.1.i = phi i1 [ false, %23 ], [ %.not19.i, %32 ], [ true, %26 ], [ %.not2.i.i, %29 ]
  call void @llvm.lifetime.end.p0(i64 4, ptr nonnull %4) #7
  br label %proxy_h2_connisalive.exit

proxy_h2_connisalive.exit:                        ; preds = %proxy_h2_should_close_session.exit.i, %17, %12, %9, %3
  %34 = phi i1 [ false, %3 ], [ false, %12 ], [ false, %9 ], [ %.1.i, %proxy_h2_should_close_session.exit.i ], [ true, %17 ]
  %35 = zext i1 %34 to i32
  %.not25 = icmp eq ptr %1, null
  br i1 %.not25, label %55, label %36

36:                                               ; preds = %proxy_h2_connisalive.exit
  %37 = getelementptr inbounds nuw i8, ptr %1, i64 2562
  %38 = load i64, ptr %37, align 2
  %39 = and i64 %38, 134217728
  %.not26 = icmp eq i64 %39, 0
  br i1 %.not26, label %55, label %40

40:                                               ; preds = %36
  %41 = getelementptr inbounds nuw i8, ptr %1, i64 4712
  %42 = load ptr, ptr %41, align 8, !tbaa !108
  %.not27 = icmp eq ptr %42, null
  br i1 %.not27, label %47, label %43

43:                                               ; preds = %40
  %44 = getelementptr inbounds nuw i8, ptr %42, i64 8
  %45 = load i32, ptr %44, align 8, !tbaa !109
  %46 = icmp sgt i32 %45, 0
  br i1 %46, label %47, label %55

47:                                               ; preds = %40, %43
  %48 = load ptr, ptr %0, align 8, !tbaa !111
  %49 = getelementptr inbounds nuw i8, ptr %48, i64 12
  %50 = load i32, ptr %49, align 4, !tbaa !112
  %51 = icmp sgt i32 %50, 0
  br i1 %51, label %52, label %55

52:                                               ; preds = %47
  %53 = load i8, ptr %2, align 1, !tbaa !29, !range !32, !noundef !33
  %54 = zext nneg i8 %53 to i32
  call void (ptr, ptr, ptr, ...) @Curl_trc_cf_infof(ptr noundef nonnull %1, ptr noundef nonnull %0, ptr noundef nonnull @.str.74, i32 noundef %35, i32 noundef %54) #7
  br label %55

55:                                               ; preds = %proxy_h2_connisalive.exit, %36, %43, %47, %52
  %56 = load ptr, ptr %5, align 8, !tbaa !4
  %57 = getelementptr inbounds nuw i8, ptr %56, i64 8
  store ptr %.sroa.0.0.copyload, ptr %57, align 8, !tbaa !13
  ret i1 %34
}